target datalayout = "e-m:e-p270:32:32-p271:32:32-p272:64:64-i64:64-i128:128-f80:128-n8:16:32:64-S128"
target triple = "x86_64-pc-linux-gnu"

%struct.AVFilterContext = type { ptr, ptr, ptr, ptr, ptr, i32, ptr, ptr, i32, ptr, ptr, i32, i32, ptr, ptr, ptr, ptr, i32, ptr, i32, i32 }
%struct.EBUR128Context = type { ptr, i32, double, ptr, double, ptr, ptr, ptr, ptr, i32, i32, i32, i32, %struct.rect, %struct.rect, %struct.rect, ptr, i32, i32, i32, i32, i32, ptr, i32, ptr, i32, i32, i32, ptr, ptr, ptr, ptr, [3 x double], [3 x double], [3 x double], [3 x double], %struct.integrator, %struct.integrator, double, double, double, double, i32, i32, i32, double, i32, i32, i32 }
%struct.rect = type { i32, i32, i32, i32 }
%struct.integrator = type { ptr, i32, i32, ptr, i32, double, double, i32, ptr }

@.str.85 = private unnamed_addr constant [206 x i8] c"Summary:\0A\0A  Integrated loudness:\0A    I:         %5.1f LUFS\0A    Threshold: %5.1f LUFS\0A\0A  Loudness range:\0A    LRA:       %5.1f LU\0A    Threshold: %5.1f LUFS\0A    LRA low:   %5.1f LUFS\0A    LRA high:  %5.1f LUFS\00", align 1
@.str.86 = private unnamed_addr constant [43 x i8] c"\0A\0A  Sample peak:\0A    Peak:      %5.1f dBFS\00", align 1
@.str.87 = private unnamed_addr constant [41 x i8] c"\0A\0A  True peak:\0A    Peak:      %5.1f dBFS\00", align 1
@.str.88 = private unnamed_addr constant [2 x i8] c"\0A\00", align 1

; Function Attrs: cold nounwind optsize uwtable
define internal void @uninit(ptr noundef %0) #0 {
  %2 = alloca ptr, align 8
  %3 = alloca ptr, align 8
  %4 = alloca i32, align 4
  store ptr %0, ptr %2, align 8, !tbaa !4
  call void @llvm.lifetime.start.p0(i64 8, ptr %3) #14
  %5 = load ptr, ptr %2, align 8, !tbaa !4
  %6 = getelementptr inbounds nuw %struct.AVFilterContext, ptr %5, i32 0, i32 9
  %7 = load ptr, ptr %6, align 8, !tbaa !9
  store ptr %7, ptr %3, align 8, !tbaa !22
  %8 = load ptr, ptr %3, align 8, !tbaa !22
  %9 = getelementptr inbounds nuw %struct.EBUR128Context, ptr %8, i32 0, i32 23
  %10 = load i32, ptr %9, align 8, !tbaa !54
  %11 = icmp eq i32 %10, 1
  br i1 %11, label %12, label %48

12:                                               ; preds = %1
  %13 = load ptr, ptr %3, align 8, !tbaa !22
  %14 = getelementptr inbounds nuw %struct.EBUR128Context, ptr %13, i32 0, i32 44
  %15 = load i32, ptr %14, align 8, !tbaa !55
  %16 = icmp ne i32 %15, 0
  br i1 %16, label %17, label %48

17:                                               ; preds = %12
  %18 = load ptr, ptr %3, align 8, !tbaa !22
  %19 = getelementptr inbounds nuw %struct.EBUR128Context, ptr %18, i32 0, i32 45
  %20 = load double, ptr %19, align 8, !tbaa !56
  %21 = load ptr, ptr %3, align 8, !tbaa !22
  %22 = getelementptr inbounds nuw %struct.EBUR128Context, ptr %21, i32 0, i32 36
  %23 = getelementptr inbounds nuw %struct.integrator, ptr %22, i32 0, i32 5
  %24 = load double, ptr %23, align 8, !tbaa !57
  %25 = fsub nsz double %24, %20
  store double %25, ptr %23, align 8, !tbaa !57
  %26 = load ptr, ptr %3, align 8, !tbaa !22
  %27 = getelementptr inbounds nuw %struct.EBUR128Context, ptr %26, i32 0, i32 45
  %28 = load double, ptr %27, align 8, !tbaa !56
  %29 = load ptr, ptr %3, align 8, !tbaa !22
  %30 = getelementptr inbounds nuw %struct.EBUR128Context, ptr %29, i32 0, i32 37
  %31 = getelementptr inbounds nuw %struct.integrator, ptr %30, i32 0, i32 5
  %32 = load double, ptr %31, align 8, !tbaa !58
  %33 = fsub nsz double %32, %28
  store double %33, ptr %31, align 8, !tbaa !58
  %34 = load ptr, ptr %3, align 8, !tbaa !22
  %35 = getelementptr inbounds nuw %struct.EBUR128Context, ptr %34, i32 0, i32 45
  %36 = load double, ptr %35, align 8, !tbaa !56
  %37 = load ptr, ptr %3, align 8, !tbaa !22
  %38 = getelementptr inbounds nuw %struct.EBUR128Context, ptr %37, i32 0, i32 40
  %39 = load double, ptr %38, align 8, !tbaa !59
  %40 = fsub nsz double %39, %36
  store double %40, ptr %38, align 8, !tbaa !59
  %41 = load ptr, ptr %3, align 8, !tbaa !22
  %42 = getelementptr inbounds nuw %struct.EBUR128Context, ptr %41, i32 0, i32 45
  %43 = load double, ptr %42, align 8, !tbaa !56
  %44 = load ptr, ptr %3, align 8, !tbaa !22
  %45 = getelementptr inbounds nuw %struct.EBUR128Context, ptr %44, i32 0, i32 41
  %46 = load double, ptr %45, align 8, !tbaa !60
  %47 = fsub nsz double %46, %43
  store double %47, ptr %45, align 8, !tbaa !60
  br label %48

48:                                               ; preds = %17, %12, %1
  %49 = load ptr, ptr %3, align 8, !tbaa !22
  %50 = getelementptr inbounds nuw %struct.EBUR128Context, ptr %49, i32 0, i32 23
  %51 = load i32, ptr %50, align 8, !tbaa !54
  %52 = icmp sgt i32 %51, 0
  br i1 %52, label %53, label %104

53:                                               ; preds = %48
  %54 = load ptr, ptr %2, align 8, !tbaa !4
  %55 = load ptr, ptr %3, align 8, !tbaa !22
  %56 = getelementptr inbounds nuw %struct.EBUR128Context, ptr %55, i32 0, i32 38
  %57 = load double, ptr %56, align 8, !tbaa !40
  %58 = load ptr, ptr %3, align 8, !tbaa !22
  %59 = getelementptr inbounds nuw %struct.EBUR128Context, ptr %58, i32 0, i32 36
  %60 = getelementptr inbounds nuw %struct.integrator, ptr %59, i32 0, i32 5
  %61 = load double, ptr %60, align 8, !tbaa !57
  %62 = load ptr, ptr %3, align 8, !tbaa !22
  %63 = getelementptr inbounds nuw %struct.EBUR128Context, ptr %62, i32 0, i32 39
  %64 = load double, ptr %63, align 8, !tbaa !41
  %65 = load ptr, ptr %3, align 8, !tbaa !22
  %66 = getelementptr inbounds nuw %struct.EBUR128Context, ptr %65, i32 0, i32 37
  %67 = getelementptr inbounds nuw %struct.integrator, ptr %66, i32 0, i32 5
  %68 = load double, ptr %67, align 8, !tbaa !58
  %69 = load ptr, ptr %3, align 8, !tbaa !22
  %70 = getelementptr inbounds nuw %struct.EBUR128Context, ptr %69, i32 0, i32 40
  %71 = load double, ptr %70, align 8, !tbaa !59
  %72 = load ptr, ptr %3, align 8, !tbaa !22
  %73 = getelementptr inbounds nuw %struct.EBUR128Context, ptr %72, i32 0, i32 41
  %74 = load double, ptr %73, align 8, !tbaa !60
  call void (ptr, i32, ptr, ...) @av_log(ptr noundef %54, i32 noundef 32, ptr noundef @.str.85, double noundef %57, double noundef %61, double noundef %64, double noundef %68, double noundef %71, double noundef %74)
  br label %75

75:                                               ; preds = %53
  %76 = load ptr, ptr %3, align 8, !tbaa !22
  %77 = getelementptr inbounds nuw %struct.EBUR128Context, ptr %76, i32 0, i32 1
  %78 = load i32, ptr %77, align 8, !tbaa !61
  %79 = and i32 %78, 2
  %80 = icmp ne i32 %79, 0
  br i1 %80, label %81, label %86

81:                                               ; preds = %75
  %82 = load ptr, ptr %2, align 8, !tbaa !4
  %83 = load ptr, ptr %3, align 8, !tbaa !22
  %84 = getelementptr inbounds nuw %struct.EBUR128Context, ptr %83, i32 0, i32 4
  %85 = load double, ptr %84, align 8, !tbaa !62
  call void (ptr, i32, ptr, ...) @av_log(ptr noundef %82, i32 noundef 32, ptr noundef @.str.86, double noundef %85)
  br label %86

86:                                               ; preds = %81, %75
  br label %87

87:                                               ; preds = %86
  br label %88

88:                                               ; preds = %87
  br label %89

89:                                               ; preds = %88
  %90 = load ptr, ptr %3, align 8, !tbaa !22
  %91 = getelementptr inbounds nuw %struct.EBUR128Context, ptr %90, i32 0, i32 1
  %92 = load i32, ptr %91, align 8, !tbaa !61
  %93 = and i32 %92, 4
  %94 = icmp ne i32 %93, 0
  br i1 %94, label %95, label %100

95:                                               ; preds = %89
  %96 = load ptr, ptr %2, align 8, !tbaa !4
  %97 = load ptr, ptr %3, align 8, !tbaa !22
  %98 = getelementptr inbounds nuw %struct.EBUR128Context, ptr %97, i32 0, i32 2
  %99 = load double, ptr %98, align 8, !tbaa !63
  call void (ptr, i32, ptr, ...) @av_log(ptr noundef %96, i32 noundef 32, ptr noundef @.str.87, double noundef %99)
  br label %100

100:                                              ; preds = %95, %89
  br label %101

101:                                              ; preds = %100
  br label %102

102:                                              ; preds = %101
  %103 = load ptr, ptr %2, align 8, !tbaa !4
  call void (ptr, i32, ptr, ...) @av_log(ptr noundef %103, i32 noundef 32, ptr noundef @.str.88)
  br label %104

104:                                              ; preds = %102, %48
  %105 = load ptr, ptr %3, align 8, !tbaa !22
  %106 = getelementptr inbounds nuw %struct.EBUR128Context, ptr %105, i32 0, i32 22
  call void @av_freep(ptr noundef %106)
  %107 = load ptr, ptr %3, align 8, !tbaa !22
  %108 = getelementptr inbounds nuw %struct.EBUR128Context, ptr %107, i32 0, i32 29
  call void @av_freep(ptr noundef %108)
  %109 = load ptr, ptr %3, align 8, !tbaa !22
  %110 = getelementptr inbounds nuw %struct.EBUR128Context, ptr %109, i32 0, i32 30
  call void @av_freep(ptr noundef %110)
  %111 = load ptr, ptr %3, align 8, !tbaa !22
  %112 = getelementptr inbounds nuw %struct.EBUR128Context, ptr %111, i32 0, i32 31
  call void @av_freep(ptr noundef %112)
  %113 = load ptr, ptr %3, align 8, !tbaa !22
  %114 = getelementptr inbounds nuw %struct.EBUR128Context, ptr %113, i32 0, i32 24
  call void @av_freep(ptr noundef %114)
  %115 = load ptr, ptr %3, align 8, !tbaa !22
  %116 = getelementptr inbounds nuw %struct.EBUR128Context, ptr %115, i32 0, i32 3
  call void @av_freep(ptr noundef %116)
  %117 = load ptr, ptr %3, align 8, !tbaa !22
  %118 = getelementptr inbounds nuw %struct.EBUR128Context, ptr %117, i32 0, i32 5
  call void @av_freep(ptr noundef %118)
  %119 = load ptr, ptr %3, align 8, !tbaa !22
  %120 = getelementptr inbounds nuw %struct.EBUR128Context, ptr %119, i32 0, i32 6
  call void @av_freep(ptr noundef %120)
  %121 = load ptr, ptr %3, align 8, !tbaa !22
  %122 = getelementptr inbounds nuw %struct.EBUR128Context, ptr %121, i32 0, i32 36
  %123 = getelementptr inbounds nuw %struct.integrator, ptr %122, i32 0, i32 3
  call void @av_freep(ptr noundef %123)
  %124 = load ptr, ptr %3, align 8, !tbaa !22
  %125 = getelementptr inbounds nuw %struct.EBUR128Context, ptr %124, i32 0, i32 37
  %126 = getelementptr inbounds nuw %struct.integrator, ptr %125, i32 0, i32 3
  call void @av_freep(ptr noundef %126)
  %127 = load ptr, ptr %3, align 8, !tbaa !22
  %128 = getelementptr inbounds nuw %struct.EBUR128Context, ptr %127, i32 0, i32 36
  %129 = getelementptr inbounds nuw %struct.integrator, ptr %128, i32 0, i32 8
  call void @av_freep(ptr noundef %129)
  %130 = load ptr, ptr %3, align 8, !tbaa !22
  %131 = getelementptr inbounds nuw %struct.EBUR128Context, ptr %130, i32 0, i32 37
  %132 = getelementptr inbounds nuw %struct.integrator, ptr %131, i32 0, i32 8
  call void @av_freep(ptr noundef %132)
  call void @llvm.lifetime.start.p0(i64 4, ptr %4) #14
  store i32 0, ptr %4, align 4, !tbaa !51
  br label %133

133:                                              ; preds = %169, %104
  %134 = load i32, ptr %4, align 4, !tbaa !51
  %135 = load ptr, ptr %3, align 8, !tbaa !22
  %136 = getelementptr inbounds nuw %struct.EBUR128Context, ptr %135, i32 0, i32 23
  %137 = load i32, ptr %136, align 8, !tbaa !54
  %138 = icmp slt i32 %134, %137
  br i1 %138, label %140, label %139

139:                                              ; preds = %133
  call void @llvm.lifetime.end.p0(i64 4, ptr %4) #14
  br label %172

140:                                              ; preds = %133
  %141 = load ptr, ptr %3, align 8, !tbaa !22
  %142 = getelementptr inbounds nuw %struct.EBUR128Context, ptr %141, i32 0, i32 36
  %143 = getelementptr inbounds nuw %struct.integrator, ptr %142, i32 0, i32 0
  %144 = load ptr, ptr %143, align 8, !tbaa !64
  %145 = icmp ne ptr %144, null
  br i1 %145, label %146, label %154

146:                                              ; preds = %140
  %147 = load ptr, ptr %3, align 8, !tbaa !22
  %148 = getelementptr inbounds nuw %struct.EBUR128Context, ptr %147, i32 0, i32 36
  %149 = getelementptr inbounds nuw %struct.integrator, ptr %148, i32 0, i32 0
  %150 = load ptr, ptr %149, align 8, !tbaa !64
  %151 = load i32, ptr %4, align 4, !tbaa !51
  %152 = sext i32 %151 to i64
  %153 = getelementptr inbounds ptr, ptr %150, i64 %152
  call void @av_freep(ptr noundef %153)
  br label %154

154:                                              ; preds = %146, %140
  %155 = load ptr, ptr %3, align 8, !tbaa !22
  %156 = getelementptr inbounds nuw %struct.EBUR128Context, ptr %155, i32 0, i32 37
  %157 = getelementptr inbounds nuw %struct.integrator, ptr %156, i32 0, i32 0
  %158 = load ptr, ptr %157, align 8, !tbaa !65
  %159 = icmp ne ptr %158, null
  br i1 %159, label %160, label %168

160:                                              ; preds = %154
  %161 = load ptr, ptr %3, align 8, !tbaa !22
  %162 = getelementptr inbounds nuw %struct.EBUR128Context, ptr %161, i32 0, i32 37
  %163 = getelementptr inbounds nuw %struct.integrator, ptr %162, i32 0, i32 0
  %164 = load ptr, ptr %163, align 8, !tbaa !65
  %165 = load i32, ptr %4, align 4, !tbaa !51
  %166 = sext i32 %165 to i64
  %167 = getelementptr inbounds ptr, ptr %164, i64 %166
  call void @av_freep(ptr noundef %167)
  br label %168

168:                                              ; preds = %160, %154
  br label %169

169:                                              ; preds = %168
  %170 = load i32, ptr %4, align 4, !tbaa !51
  %171 = add nsw i32 %170, 1
  store i32 %171, ptr %4, align 4, !tbaa !51
  br label %133, !llvm.loop !66

172:                                              ; preds = %139
  %173 = load ptr, ptr %3, align 8, !tbaa !22
  %174 = getelementptr inbounds nuw %struct.EBUR128Context, ptr %173, i32 0, i32 36
  %175 = getelementptr inbounds nuw %struct.integrator, ptr %174, i32 0, i32 0
  call void @av_freep(ptr noundef %175)
  %176 = load ptr, ptr %3, align 8, !tbaa !22
  %177 = getelementptr inbounds nuw %struct.EBUR128Context, ptr %176, i32 0, i32 37
  %178 = getelementptr inbounds nuw %struct.integrator, ptr %177, i32 0, i32 0
  call void @av_freep(ptr noundef %178)
  %179 = load ptr, ptr %3, align 8, !tbaa !22
  %180 = getelementptr inbounds nuw %struct.EBUR128Context, ptr %179, i32 0, i32 16
  call void @av_frame_free(ptr noundef %180)
  %181 = load ptr, ptr %3, align 8, !tbaa !22
  %182 = getelementptr inbounds nuw %struct.EBUR128Context, ptr %181, i32 0, i32 8
  call void @av_freep(ptr noundef %182)
  %183 = load ptr, ptr %3, align 8, !tbaa !22
  %184 = getelementptr inbounds nuw %struct.EBUR128Context, ptr %183, i32 0, i32 7
  call void @swr_free(ptr noundef %184)
  call void @llvm.lifetime.end.p0(i64 8, ptr %3) #14
  ret void
}