; Function Attrs: cold nounwind optsize uwtable
define internal void @uninit(ptr noundef %0) #0 {
  %2 = getelementptr inbounds nuw i8, ptr %0, i64 72
  %3 = load ptr, ptr %2, align 8, !tbaa !4
  %4 = getelementptr inbounds nuw i8, ptr %3, i64 176
  %5 = load i32, ptr %4, align 8, !tbaa !41
  %6 = icmp eq i32 %5, 1
  br i1 %6, label %7, label %25

7:                                                ; preds = %1
  %8 = getelementptr inbounds nuw i8, ptr %3, i64 504
  %9 = load i32, ptr %8, align 8, !tbaa !42
  %.not = icmp eq i32 %9, 0
  br i1 %.not, label %.thread, label %10

10:                                               ; preds = %7
  %11 = getelementptr inbounds nuw i8, ptr %3, i64 512
  %12 = load double, ptr %11, align 8, !tbaa !43
  %13 = getelementptr inbounds nuw i8, ptr %3, i64 368
  %14 = load double, ptr %13, align 8, !tbaa !44
  %15 = fsub nsz double %14, %12
  store double %15, ptr %13, align 8, !tbaa !44
  %16 = getelementptr inbounds nuw i8, ptr %3, i64 432
  %17 = load double, ptr %16, align 8, !tbaa !45
  %18 = fsub nsz double %17, %12
  store double %18, ptr %16, align 8, !tbaa !45
  %19 = getelementptr inbounds nuw i8, ptr %3, i64 480
  %20 = load double, ptr %19, align 8, !tbaa !46
  %21 = fsub nsz double %20, %12
  store double %21, ptr %19, align 8, !tbaa !46
  %22 = getelementptr inbounds nuw i8, ptr %3, i64 488
  %23 = load double, ptr %22, align 8, !tbaa !47
  %24 = fsub nsz double %23, %12
  store double %24, ptr %22, align 8, !tbaa !47
  br label %.thread

25:                                               ; preds = %1
  %26 = icmp sgt i32 %5, 0
  br i1 %26, label %.thread, label %52

.thread:                                          ; preds = %7, %10, %25
  %27 = getelementptr inbounds nuw i8, ptr %3, i64 464
  %28 = load double, ptr %27, align 8, !tbaa !36
  %29 = getelementptr inbounds nuw i8, ptr %3, i64 368
  %30 = load double, ptr %29, align 8, !tbaa !44
  %31 = getelementptr inbounds nuw i8, ptr %3, i64 472
  %32 = load double, ptr %31, align 8, !tbaa !37
  %33 = getelementptr inbounds nuw i8, ptr %3, i64 432
  %34 = load double, ptr %33, align 8, !tbaa !45
  %35 = getelementptr inbounds nuw i8, ptr %3, i64 480
  %36 = load double, ptr %35, align 8, !tbaa !46
  %37 = getelementptr inbounds nuw i8, ptr %3, i64 488
  %38 = load double, ptr %37, align 8, !tbaa !47
  tail call void (ptr, i32, ptr, ...) @av_log(ptr noundef nonnull %0, i32 noundef 32, ptr noundef nonnull @.str.85, double noundef %28, double noundef %30, double noundef %32, double noundef %34, double noundef %36, double noundef %38) #13
  %39 = getelementptr inbounds nuw i8, ptr %3, i64 8
  %40 = load i32, ptr %39, align 8, !tbaa !48
  %41 = and i32 %40, 2
  %.not53 = icmp eq i32 %41, 0
  br i1 %.not53, label %45, label %42

42:                                               ; preds = %.thread
  %43 = getelementptr inbounds nuw i8, ptr %3, i64 32
  %44 = load double, ptr %43, align 8, !tbaa !49
  tail call void (ptr, i32, ptr, ...) @av_log(ptr noundef nonnull %0, i32 noundef 32, ptr noundef nonnull @.str.86, double noundef %44) #13
  %.pre = load i32, ptr %39, align 8, !tbaa !48
  br label %45

45:                                               ; preds = %.thread, %42
  %46 = phi i32 [ %40, %.thread ], [ %.pre, %42 ]
  %47 = and i32 %46, 4
  %.not54 = icmp eq i32 %47, 0
  br i1 %.not54, label %51, label %48

48:                                               ; preds = %45
  %49 = getelementptr inbounds nuw i8, ptr %3, i64 16
  %50 = load double, ptr %49, align 8, !tbaa !50
  tail call void (ptr, i32, ptr, ...) @av_log(ptr noundef nonnull %0, i32 noundef 32, ptr noundef nonnull @.str.87, double noundef %50) #13
  br label %51

51:                                               ; preds = %48, %45
  tail call void (ptr, i32, ptr, ...) @av_log(ptr noundef nonnull %0, i32 noundef 32, ptr noundef nonnull @.str.88) #13
  br label %52

52:                                               ; preds = %51, %25
  %53 = getelementptr inbounds nuw i8, ptr %3, i64 168
  tail call void @av_freep(ptr noundef nonnull %53) #13
  %54 = getelementptr inbounds nuw i8, ptr %3, i64 216
  tail call void @av_freep(ptr noundef nonnull %54) #13
  %55 = getelementptr inbounds nuw i8, ptr %3, i64 224
  tail call void @av_freep(ptr noundef nonnull %55) #13
  %56 = getelementptr inbounds nuw i8, ptr %3, i64 232
  tail call void @av_freep(ptr noundef nonnull %56) #13
  %57 = getelementptr inbounds nuw i8, ptr %3, i64 184
  tail call void @av_freep(ptr noundef nonnull %57) #13
  %58 = getelementptr inbounds nuw i8, ptr %3, i64 24
  tail call void @av_freep(ptr noundef nonnull %58) #13
  %59 = getelementptr inbounds nuw i8, ptr %3, i64 40
  tail call void @av_freep(ptr noundef nonnull %59) #13
  %60 = getelementptr inbounds nuw i8, ptr %3, i64 48
  tail call void @av_freep(ptr noundef nonnull %60) #13
  %61 = getelementptr inbounds nuw i8, ptr %3, i64 336
  %62 = getelementptr inbounds nuw i8, ptr %3, i64 352
  tail call void @av_freep(ptr noundef nonnull %62) #13
  %63 = getelementptr inbounds nuw i8, ptr %3, i64 400
  %64 = getelementptr inbounds nuw i8, ptr %3, i64 416
  tail call void @av_freep(ptr noundef nonnull %64) #13
  %65 = getelementptr inbounds nuw i8, ptr %3, i64 392
  tail call void @av_freep(ptr noundef nonnull %65) #13
  %66 = getelementptr inbounds nuw i8, ptr %3, i64 456
  tail call void @av_freep(ptr noundef nonnull %66) #13
  %67 = load i32, ptr %4, align 8, !tbaa !41
  %68 = icmp sgt i32 %67, 0
  br i1 %68, label %.lr.ph, label %._crit_edge

._crit_edge:                                      ; preds = %79, %52
  tail call void @av_freep(ptr noundef nonnull %61) #13
  tail call void @av_freep(ptr noundef nonnull %63) #13
  %69 = getelementptr inbounds nuw i8, ptr %3, i64 136
  tail call void @av_frame_free(ptr noundef nonnull %69) #13
  %70 = getelementptr inbounds nuw i8, ptr %3, i64 64
  tail call void @av_freep(ptr noundef nonnull %70) #13
  %71 = getelementptr inbounds nuw i8, ptr %3, i64 56
  tail call void @swr_free(ptr noundef nonnull %71) #13
  ret void

.lr.ph:                                           ; preds = %52, %79
  %indvars.iv = phi i64 [ %indvars.iv.next, %79 ], [ 0, %52 ]
  %72 = load ptr, ptr %61, align 8, !tbaa !51
  %.not55 = icmp eq ptr %72, null
  br i1 %.not55, label %75, label %73

73:                                               ; preds = %.lr.ph
  %74 = getelementptr inbounds nuw ptr, ptr %72, i64 %indvars.iv
  tail call void @av_freep(ptr noundef nonnull %74) #13
  br label %75

75:                                               ; preds = %73, %.lr.ph
  %76 = load ptr, ptr %63, align 8, !tbaa !52
  %.not56 = icmp eq ptr %76, null
  br i1 %.not56, label %79, label %77

77:                                               ; preds = %75
  %78 = getelementptr inbounds nuw ptr, ptr %76, i64 %indvars.iv
  tail call void @av_freep(ptr noundef nonnull %78) #13
  br label %79

79:                                               ; preds = %75, %77
  %indvars.iv.next = add nuw nsw i64 %indvars.iv, 1
  %80 = load i32, ptr %4, align 8, !tbaa !41
  %81 = sext i32 %80 to i64
  %82 = icmp slt i64 %indvars.iv.next, %81
  br i1 %82, label %.lr.ph, label %._crit_edge, !llvm.loop !53
}